; ModuleID = '53/274.c'
source_filename = "53/274.c"
target datalayout = "e-m:e-p270:32:32-p271:32:32-p272:64:64-i64:64-f80:128-n8:16:32:64-S128"
target triple = "x86_64-pc-linux-gnu"

@.str = private unnamed_addr constant [3 x i8] c"%d\00", align 1
@.str.1 = private unnamed_addr constant [4 x i8] c"%d,\00", align 1

; Function Attrs: noinline nounwind uwtable
define dso_local void @main() #0 {
  %1 = alloca [300 x i32], align 16
  %2 = alloca i32, align 4
  %3 = alloca i32, align 4
  %4 = alloca i32, align 4
  %5 = alloca i32, align 4
  %6 = alloca i32, align 4
  %7 = alloca i32, align 4
  %8 = call i32 (i8*, ...) @__isoc99_scanf(i8* getelementptr inbounds ([3 x i8], [3 x i8]* @.str, i64 0, i64 0), i32* %2)
  %9 = load i32, i32* %2, align 4
  store i32 %9, i32* %5, align 4
  store i32 0, i32* %3, align 4
  br label %10

10:                                               ; preds = %19, %0
  %11 = load i32, i32* %3, align 4
  %12 = load i32, i32* %2, align 4
  %13 = icmp slt i32 %11, %12
  br i1 %13, label %14, label %22

14:                                               ; preds = %10
  %15 = load i32, i32* %3, align 4
  %16 = sext i32 %15 to i64
  %17 = getelementptr inbounds [300 x i32], [300 x i32]* %1, i64 0, i64 %16
  %18 = call i32 (i8*, ...) @__isoc99_scanf(i8* getelementptr inbounds ([3 x i8], [3 x i8]* @.str, i64 0, i64 0), i32* %17)
  br label %19

19:                                               ; preds = %14
  %20 = load i32, i32* %3, align 4
  %21 = add nsw i32 %20, 1
  store i32 %21, i32* %3, align 4
  br label %10

22:                                               ; preds = %10
  store i32 0, i32* %7, align 4
  br label %23

23:                                               ; preds = %88, %22
  %24 = load i32, i32* %7, align 4
  %25 = load i32, i32* %5, align 4
  %26 = icmp slt i32 %24, %25
  br i1 %26, label %27, label %91

27:                                               ; preds = %23
  %28 = load i32, i32* %7, align 4
  %29 = add nsw i32 %28, 1
  store i32 %29, i32* %6, align 4
  br label %30

30:                                               ; preds = %69, %27
  %31 = load i32, i32* %6, align 4
  %32 = load i32, i32* %5, align 4
  %33 = icmp slt i32 %31, %32
  br i1 %33, label %34, label %70

34:                                               ; preds = %30
  %35 = load i32, i32* %7, align 4
  %36 = sext i32 %35 to i64
  %37 = getelementptr inbounds [300 x i32], [300 x i32]* %1, i64 0, i64 %36
  %38 = load i32, i32* %37, align 4
  %39 = load i32, i32* %6, align 4
  %40 = sext i32 %39 to i64
  %41 = getelementptr inbounds [300 x i32], [300 x i32]* %1, i64 0, i64 %40
  %42 = load i32, i32* %41, align 4
  %43 = icmp eq i32 %38, %42
  br i1 %43, label %44, label %66

44:                                               ; preds = %34
  %45 = load i32, i32* %6, align 4
  store i32 %45, i32* %4, align 4
  br label %46

46:                                               ; preds = %60, %44
  %47 = load i32, i32* %4, align 4
  %48 = load i32, i32* %5, align 4
  %49 = sub nsw i32 %48, 1
  %50 = icmp slt i32 %47, %49
  br i1 %50, label %51, label %63

51:                                               ; preds = %46
  %52 = load i32, i32* %4, align 4
  %53 = add nsw i32 %52, 1
  %54 = sext i32 %53 to i64
  %55 = getelementptr inbounds [300 x i32], [300 x i32]* %1, i64 0, i64 %54
  %56 = load i32, i32* %55, align 4
  %57 = load i32, i32* %4, align 4
  %58 = sext i32 %57 to i64
  %59 = getelementptr inbounds [300 x i32], [300 x i32]* %1, i64 0, i64 %58
  store i32 %56, i32* %59, align 4
  br label %60

60:                                               ; preds = %51
  %61 = load i32, i32* %4, align 4
  %62 = add nsw i32 %61, 1
  store i32 %62, i32* %4, align 4
  br label %46

63:                                               ; preds = %46
  %64 = load i32, i32* %5, align 4
  %65 = sub nsw i32 %64, 1
  store i32 %65, i32* %5, align 4
  br label %69

66:                                               ; preds = %34
  %67 = load i32, i32* %6, align 4
  %68 = add nsw i32 %67, 1
  store i32 %68, i32* %6, align 4
  br label %69

69:                                               ; preds = %66, %63
  br label %30

70:                                               ; preds = %30
  %71 = load i32, i32* %7, align 4
  %72 = load i32, i32* %5, align 4
  %73 = sub nsw i32 %72, 1
  %74 = icmp slt i32 %71, %73
  br i1 %74, label %75, label %81

75:                                               ; preds = %70
  %76 = load i32, i32* %7, align 4
  %77 = sext i32 %76 to i64
  %78 = getelementptr inbounds [300 x i32], [300 x i32]* %1, i64 0, i64 %77
  %79 = load i32, i32* %78, align 4
  %80 = call i32 (i8*, ...) @printf(i8* getelementptr inbounds ([4 x i8], [4 x i8]* @.str.1, i64 0, i64 0), i32 %79)
  br label %87

81:                                               ; preds = %70
  %82 = load i32, i32* %7, align 4
  %83 = sext i32 %82 to i64
  %84 = getelementptr inbounds [300 x i32], [300 x i32]* %1, i64 0, i64 %83
  %85 = load i32, i32* %84, align 4
  %86 = call i32 (i8*, ...) @printf(i8* getelementptr inbounds ([3 x i8], [3 x i8]* @.str, i64 0, i64 0), i32 %85)
  br label %87

87:                                               ; preds = %81, %75
  br label %88

88:                                               ; preds = %87
  %89 = load i32, i32* %7, align 4
  %90 = add nsw i32 %89, 1
  store i32 %90, i32* %7, align 4
  br label %23

91:                                               ; preds = %23
  ret void
}

declare dso_local i32 @__isoc99_scanf(i8*, ...) #1

declare dso_local i32 @printf(i8*, ...) #1


!llvm.module.flags = !{!0}
!llvm.ident = !{!1}

!0 = !{i32 1, !"wchar_size", i32 4}
!1 = !{!"clang version 10.0.0-4ubuntu1 "}
